; Function Attrs: nounwind uwtable
define range(i32 0, 2) i32 @X509_add1_reject_object(ptr noundef captures(address_is_null) %0, ptr noundef %1) local_unnamed_addr #1 {
  %3 = tail call ptr @OBJ_dup(ptr noundef %1) #6
  %4 = icmp eq ptr %3, null
  br i1 %4, label %23, label %5

5:                                                ; preds = %2
  %6 = icmp eq ptr %0, null
  br i1 %6, label %.thread, label %7

7:                                                ; preds = %5
  %8 = getelementptr inbounds nuw i8, ptr %0, i64 336
  %9 = load ptr, ptr %8, align 8, !tbaa !3
  %10 = icmp eq ptr %9, null
  br i1 %10, label %aux_get.exit, label %aux_get.exit.thread14

aux_get.exit:                                     ; preds = %7
  %11 = tail call ptr @ASN1_item_new(ptr noundef nonnull @X509_CERT_AUX_it.local_it) #6
  store ptr %11, ptr %8, align 8, !tbaa !3
  %12 = icmp eq ptr %11, null
  br i1 %12, label %.thread, label %aux_get.exit.thread14

aux_get.exit.thread14:                            ; preds = %7, %aux_get.exit
  %.0.i16 = phi ptr [ %11, %aux_get.exit ], [ %9, %7 ]
  %13 = getelementptr inbounds nuw i8, ptr %.0.i16, i64 8
  %14 = load ptr, ptr %13, align 8, !tbaa !44
  %15 = icmp eq ptr %14, null
  br i1 %15, label %16, label %19

16:                                               ; preds = %aux_get.exit.thread14
  %17 = tail call ptr @OPENSSL_sk_new_null() #6
  store ptr %17, ptr %13, align 8, !tbaa !44
  %18 = icmp eq ptr %17, null
  br i1 %18, label %.thread, label %19

19:                                               ; preds = %aux_get.exit.thread14, %16
  %20 = phi ptr [ %14, %aux_get.exit.thread14 ], [ %17, %16 ]
  %21 = tail call i32 @OPENSSL_sk_push(ptr noundef nonnull %20, ptr noundef nonnull %3) #6
  %22 = icmp sgt i32 %21, 0
  br i1 %22, label %23, label %.thread

.thread:                                          ; preds = %5, %16, %aux_get.exit, %19
  tail call void @ASN1_OBJECT_free(ptr noundef nonnull %3) #6
  br label %23

23:                                               ; preds = %19, %.thread, %2
  %.09 = phi i32 [ 0, %2 ], [ 0, %.thread ], [ 1, %19 ]
  ret i32 %.09
}